; Function Attrs: mustprogress nofree norecurse nosync nounwind willreturn memory(read, argmem: none, inaccessiblemem: none) uwtable
define hidden noundef zeroext i1 @_ZN13CodeInstaller22is_general_purpose_regEP9VMRegImpl(ptr noundef %0) local_unnamed_addr #2 align 2 {
  %2 = ptrtoint ptr %0 to i64
  %3 = trunc i64 %2 to i32
  %4 = sub i32 %3, ptrtoint (ptr getelementptr inbounds (i8, ptr @all_VMRegs, i64 1) to i32)
  %5 = and i32 %4, -16
  %spec.select.i = icmp eq i32 %5, 64
  br i1 %spec.select.i, label %12, label %6

6:                                                ; preds = %1
  %7 = load i32, ptr @UseAVX, align 4
  %8 = icmp slt i32 %7, 3
  %9 = icmp slt i32 %4, 80
  %10 = select i1 %8, i32 336, i32 592
  %11 = icmp uge i32 %4, %10
  %.not3 = select i1 %9, i1 true, i1 %11
  br label %12

12:                                               ; preds = %6, %1
  %13 = phi i1 [ false, %1 ], [ %.not3, %6 ]
  ret i1 %13
}